target datalayout = "e-m:e-p270:32:32-p271:32:32-p272:64:64-i64:64-i128:128-f80:128-n8:16:32:64-S128"
target triple = "x86_64-pc-linux-gnu"

%struct.H5O_token_t = type { [16 x i8] }

@thefile = internal global i64 -1, align 8
@fake_xid = internal global i64 -2, align 8
@H5O_TOKEN_UNDEF_g = external constant %struct.H5O_token_t, align 1

; Function Attrs: nounwind uwtable
define void @get_fake_token(ptr noundef %0) #0 {
  %2 = alloca ptr, align 8
  store ptr %0, ptr %2, align 8
  %3 = load i64, ptr @thefile, align 8
  %4 = icmp sgt i64 %3, 0
  br i1 %4, label %5, label %17

5:                                                ; preds = %1
  %6 = load i64, ptr @thefile, align 8
  %7 = load i64, ptr @fake_xid, align 8
  %8 = load ptr, ptr %2, align 8
  %9 = call i32 @H5VLnative_addr_to_token(i64 noundef %6, i64 noundef %7, ptr noundef %8)
  %10 = icmp slt i32 %9, 0
  br i1 %10, label %11, label %14

11:                                               ; preds = %5
  %12 = load ptr, ptr %2, align 8
  %13 = call i32 @H5open()
  call void @llvm.memcpy.p0.p0.i64(ptr align 1 %12, ptr align 1 @H5O_TOKEN_UNDEF_g, i64 16, i1 false)
  br label %14

14:                                               ; preds = %11, %5
  %15 = load i64, ptr @fake_xid, align 8
  %16 = add i64 %15, -1
  store i64 %16, ptr @fake_xid, align 8
  br label %20

17:                                               ; preds = %1
  %18 = load ptr, ptr %2, align 8
  %19 = call i32 @H5open()
  call void @llvm.memcpy.p0.p0.i64(ptr align 1 %18, ptr align 1 @H5O_TOKEN_UNDEF_g, i64 16, i1 false)
  br label %20

20:                                               ; preds = %17, %14
  ret void
}