; Function Attrs: nounwind uwtable
define void @get_fake_token(ptr noundef %0) local_unnamed_addr #0 {
  %2 = load i64, ptr @thefile, align 8
  %3 = icmp sgt i64 %2, 0
  br i1 %3, label %4, label %13

4:                                                ; preds = %1
  %5 = load i64, ptr @fake_xid, align 8
  %6 = tail call i32 @H5VLnative_addr_to_token(i64 noundef %2, i64 noundef %5, ptr noundef %0) #10
  %7 = icmp slt i32 %6, 0
  br i1 %7, label %8, label %10

8:                                                ; preds = %4
  %9 = tail call i32 @H5open() #10
  tail call void @llvm.memcpy.p0.p0.i64(ptr noundef nonnull align 1 dereferenceable(16) %0, ptr noundef nonnull align 1 dereferenceable(16) @H5O_TOKEN_UNDEF_g, i64 16, i1 false)
  br label %10

10:                                               ; preds = %8, %4
  %11 = load i64, ptr @fake_xid, align 8
  %12 = add i64 %11, -1
  store i64 %12, ptr @fake_xid, align 8
  br label %15

13:                                               ; preds = %1
  %14 = tail call i32 @H5open() #10
  tail call void @llvm.memcpy.p0.p0.i64(ptr noundef nonnull align 1 dereferenceable(16) %0, ptr noundef nonnull align 1 dereferenceable(16) @H5O_TOKEN_UNDEF_g, i64 16, i1 false)
  br label %15

15:                                               ; preds = %13, %10
  ret void
}